target datalayout = "e-m:e-p270:32:32-p271:32:32-p272:64:64-i64:64-i128:128-f80:128-n8:16:32:64-S128"
target triple = "x86_64-unknown-linux-gnu"

%"class.rocksdb::Slice" = type { ptr, i64 }
%"class.rocksdb::WriteBatch" = type { %"class.rocksdb::WriteBatchBase", %"class.std::unique_ptr", %"struct.rocksdb::SavePoint", i8, i8, i8, %"struct.std::atomic", i64, %"class.std::unique_ptr.2", i64, %"class.std::__cxx11::basic_string" }
%"class.rocksdb::WriteBatchBase" = type { ptr }
%"class.std::unique_ptr" = type { %"struct.std::__uniq_ptr_data" }
%"struct.std::__uniq_ptr_data" = type { %"class.std::__uniq_ptr_impl" }
%"class.std::__uniq_ptr_impl" = type { %"class.std::tuple" }
%"class.std::tuple" = type { %"struct.std::_Tuple_impl" }
%"struct.std::_Tuple_impl" = type { %"struct.std::_Head_base.1" }
%"struct.std::_Head_base.1" = type { ptr }
%"struct.rocksdb::SavePoint" = type { i64, i32, i32 }
%"struct.std::atomic" = type { %"struct.std::__atomic_base" }
%"struct.std::__atomic_base" = type { i32 }
%"class.std::unique_ptr.2" = type { %"struct.std::__uniq_ptr_data.3" }
%"struct.std::__uniq_ptr_data.3" = type { %"class.std::__uniq_ptr_impl.4" }
%"class.std::__uniq_ptr_impl.4" = type { %"class.std::tuple.5" }
%"class.std::tuple.5" = type { %"struct.std::_Tuple_impl.6" }
%"struct.std::_Tuple_impl.6" = type { %"struct.std::_Head_base.9" }
%"struct.std::_Head_base.9" = type { ptr }
%"class.std::__cxx11::basic_string" = type { %"struct.std::__cxx11::basic_string<char>::_Alloc_hider", i64, %union.anon }
%"struct.std::__cxx11::basic_string<char>::_Alloc_hider" = type { ptr }
%union.anon = type { i64, [8 x i8] }
%"class.rocksdb::Status" = type { i8, i8, i8, i8, i8, i8, %"class.std::unique_ptr.24" }
%"class.std::unique_ptr.24" = type { %"struct.std::__uniq_ptr_data.25" }
%"struct.std::__uniq_ptr_data.25" = type { %"class.std::__uniq_ptr_impl.26" }
%"class.std::__uniq_ptr_impl.26" = type { %"class.std::tuple.27" }
%"class.std::tuple.27" = type { %"struct.std::_Tuple_impl.28" }
%"struct.std::_Tuple_impl.28" = type { %"struct.std::_Head_base.31" }
%"struct.std::_Head_base.31" = type { ptr }
%"class.rocksdb::LocalSavePoint" = type { ptr, %"struct.rocksdb::SavePoint" }

; Function Attrs: mustprogress nounwind uwtable
define linkonce_odr noundef i32 @_ZN7rocksdb13DecodeFixed32EPKc(ptr noundef %ptr) #1 comdat {
entry:
  %ptr.addr = alloca ptr, align 8
  %result = alloca i32, align 4
  store ptr %ptr, ptr %ptr.addr, align 8
  %0 = load ptr, ptr %ptr.addr, align 8
  call void @llvm.memcpy.p0.p0.i64(ptr align 4 %result, ptr align 1 %0, i64 4, i1 false)
  %1 = load i32, ptr %result, align 4
  ret i32 %1
}

; Function Attrs: mustprogress uwtable
define noundef i32 @_ZN7rocksdb18WriteBatchInternal5CountEPKNS_10WriteBatchE(ptr noundef %b) #0 align 2 {
entry:
  %b.addr = alloca ptr, align 8
  store ptr %b, ptr %b.addr, align 8
  %0 = load ptr, ptr %b.addr, align 8
  %rep_ = getelementptr inbounds %"class.rocksdb::WriteBatch", ptr %0, i32 0, i32 10
  %call = call noundef ptr @_ZNKSt7__cxx1112basic_stringIcSt11char_traitsIcESaIcEE4dataEv(ptr noundef nonnull align 8 dereferenceable(32) %rep_) #3
  %add.ptr = getelementptr inbounds i8, ptr %call, i64 8
  %call1 = call noundef i32 @_ZN7rocksdb13DecodeFixed32EPKc(ptr noundef %add.ptr)
  ret i32 %call1
}

; Function Attrs: mustprogress nounwind uwtable
define linkonce_odr noundef ptr @_ZNK7rocksdb5Slice4dataEv(ptr noundef nonnull align 8 dereferenceable(16) %this) #1 comdat align 2 {
entry:
  %this.addr = alloca ptr, align 8
  store ptr %this, ptr %this.addr, align 8
  %this1 = load ptr, ptr %this.addr, align 8
  %data_ = getelementptr inbounds %"class.rocksdb::Slice", ptr %this1, i32 0, i32 0
  %0 = load ptr, ptr %data_, align 8
  ret ptr %0
}

; Function Attrs: mustprogress uwtable
define linkonce_odr void @_ZN7rocksdb11PutVarint32EPNSt7__cxx1112basic_stringIcSt11char_traitsIcESaIcEEEj(ptr noundef %dst, i32 noundef %v) #0 comdat {
entry:
  %dst.addr = alloca ptr, align 8
  %v.addr = alloca i32, align 4
  %buf = alloca [5 x i8], align 1
  %ptr = alloca ptr, align 8
  store ptr %dst, ptr %dst.addr, align 8
  store i32 %v, ptr %v.addr, align 4
  %arraydecay = getelementptr inbounds [5 x i8], ptr %buf, i64 0, i64 0
  %0 = load i32, ptr %v.addr, align 4
  %call = call noundef ptr @_ZN7rocksdb14EncodeVarint32EPcj(ptr noundef %arraydecay, i32 noundef %0)
  store ptr %call, ptr %ptr, align 8
  %1 = load ptr, ptr %dst.addr, align 8
  %arraydecay1 = getelementptr inbounds [5 x i8], ptr %buf, i64 0, i64 0
  %2 = load ptr, ptr %ptr, align 8
  %arraydecay2 = getelementptr inbounds [5 x i8], ptr %buf, i64 0, i64 0
  %sub.ptr.lhs.cast = ptrtoint ptr %2 to i64
  %sub.ptr.rhs.cast = ptrtoint ptr %arraydecay2 to i64
  %sub.ptr.sub = sub i64 %sub.ptr.lhs.cast, %sub.ptr.rhs.cast
  %call3 = call noundef nonnull align 8 dereferenceable(32) ptr @_ZNSt7__cxx1112basic_stringIcSt11char_traitsIcESaIcEE6appendEPKcm(ptr noundef nonnull align 8 dereferenceable(32) %1, ptr noundef %arraydecay1, i64 noundef %sub.ptr.sub)
  ret void
}

; Function Attrs: mustprogress nounwind uwtable
define linkonce_odr noundef i64 @_ZNK7rocksdb5Slice4sizeEv(ptr noundef nonnull align 8 dereferenceable(16) %this) #1 comdat align 2 {
entry:
  %this.addr = alloca ptr, align 8
  store ptr %this, ptr %this.addr, align 8
  %this1 = load ptr, ptr %this.addr, align 8
  %size_ = getelementptr inbounds %"class.rocksdb::Slice", ptr %this1, i32 0, i32 1
  %0 = load i64, ptr %size_, align 8
  ret i64 %0
}

; Function Attrs: mustprogress nounwind uwtable
define linkonce_odr void @_ZN7rocksdb9SavePointC2Emjj(ptr noundef nonnull align 8 dereferenceable(16) %this, i64 noundef %_size, i32 noundef %_count, i32 noundef %_flags) unnamed_addr #1 comdat align 2 {
entry:
  %this.addr = alloca ptr, align 8
  %_size.addr = alloca i64, align 8
  %_count.addr = alloca i32, align 4
  %_flags.addr = alloca i32, align 4
  store ptr %this, ptr %this.addr, align 8
  store i64 %_size, ptr %_size.addr, align 8
  store i32 %_count, ptr %_count.addr, align 4
  store i32 %_flags, ptr %_flags.addr, align 4
  %this1 = load ptr, ptr %this.addr, align 8
  %size = getelementptr inbounds %"struct.rocksdb::SavePoint", ptr %this1, i32 0, i32 0
  %0 = load i64, ptr %_size.addr, align 8
  store i64 %0, ptr %size, align 8
  %count = getelementptr inbounds %"struct.rocksdb::SavePoint", ptr %this1, i32 0, i32 1
  %1 = load i32, ptr %_count.addr, align 4
  store i32 %1, ptr %count, align 8
  %content_flags = getelementptr inbounds %"struct.rocksdb::SavePoint", ptr %this1, i32 0, i32 2
  %2 = load i32, ptr %_flags.addr, align 4
  store i32 %2, ptr %content_flags, align 4
  ret void
}

; Function Attrs: mustprogress nounwind uwtable
define linkonce_odr noundef i32 @_ZStanSt12memory_orderSt23__memory_order_modifier(i32 noundef %__m, i32 noundef %__mod) #1 comdat {
entry:
  %__m.addr = alloca i32, align 4
  %__mod.addr = alloca i32, align 4
  store i32 %__m, ptr %__m.addr, align 4
  store i32 %__mod, ptr %__mod.addr, align 4
  %0 = load i32, ptr %__m.addr, align 4
  %1 = load i32, ptr %__mod.addr, align 4
  %and = and i32 %0, %1
  ret i32 %and
}

; Function Attrs: mustprogress uwtable
define noundef i32 @_ZNK7rocksdb10WriteBatch5CountEv(ptr noundef nonnull align 8 dereferenceable(96) %this) #0 align 2 {
entry:
  %this.addr = alloca ptr, align 8
  store ptr %this, ptr %this.addr, align 8
  %this1 = load ptr, ptr %this.addr, align 8
  %call = call noundef i32 @_ZN7rocksdb18WriteBatchInternal5CountEPKNS_10WriteBatchE(ptr noundef %this1)
  ret i32 %call
}

; Function Attrs: mustprogress nounwind uwtable
define linkonce_odr noundef i64 @_ZNK7rocksdb10WriteBatch11GetDataSizeEv(ptr noundef nonnull align 8 dereferenceable(96) %this) #1 comdat align 2 {
entry:
  %this.addr = alloca ptr, align 8
  store ptr %this, ptr %this.addr, align 8
  %this1 = load ptr, ptr %this.addr, align 8
  %rep_ = getelementptr inbounds %"class.rocksdb::WriteBatch", ptr %this1, i32 0, i32 10
  %call = call noundef i64 @_ZNKSt7__cxx1112basic_stringIcSt11char_traitsIcESaIcEE4sizeEv(ptr noundef nonnull align 8 dereferenceable(32) %rep_) #3
  ret i64 %call
}

; Function Attrs: mustprogress uwtable
define linkonce_odr void @_ZN7rocksdb22PutLengthPrefixedSliceEPNSt7__cxx1112basic_stringIcSt11char_traitsIcESaIcEEERKNS_5SliceE(ptr noundef %dst, ptr noundef nonnull align 8 dereferenceable(16) %value) #0 comdat {
entry:
  %dst.addr = alloca ptr, align 8
  %value.addr = alloca ptr, align 8
  store ptr %dst, ptr %dst.addr, align 8
  store ptr %value, ptr %value.addr, align 8
  %0 = load ptr, ptr %dst.addr, align 8
  %1 = load ptr, ptr %value.addr, align 8
  %call = call noundef i64 @_ZNK7rocksdb5Slice4sizeEv(ptr noundef nonnull align 8 dereferenceable(16) %1)
  %conv = trunc i64 %call to i32
  call void @_ZN7rocksdb11PutVarint32EPNSt7__cxx1112basic_stringIcSt11char_traitsIcESaIcEEEj(ptr noundef %0, i32 noundef %conv)
  %2 = load ptr, ptr %dst.addr, align 8
  %3 = load ptr, ptr %value.addr, align 8
  %call1 = call noundef ptr @_ZNK7rocksdb5Slice4dataEv(ptr noundef nonnull align 8 dereferenceable(16) %3)
  %4 = load ptr, ptr %value.addr, align 8
  %call2 = call noundef i64 @_ZNK7rocksdb5Slice4sizeEv(ptr noundef nonnull align 8 dereferenceable(16) %4)
  %call3 = call noundef nonnull align 8 dereferenceable(32) ptr @_ZNSt7__cxx1112basic_stringIcSt11char_traitsIcESaIcEE6appendEPKcm(ptr noundef nonnull align 8 dereferenceable(32) %2, ptr noundef %call1, i64 noundef %call2)
  ret void
}

; Function Attrs: mustprogress uwtable
define linkonce_odr void @_ZN7rocksdb14LocalSavePointC2EPNS_10WriteBatchE(ptr noundef nonnull align 8 dereferenceable(24) %this, ptr noundef %batch) unnamed_addr #0 comdat align 2 {
entry:
  %this.addr.i = alloca ptr, align 8
  %__m.addr.i = alloca i32, align 4
  %__b.i = alloca i32, align 4
  %atomic-temp.i = alloca i32, align 4
  %this.addr = alloca ptr, align 8
  %batch.addr = alloca ptr, align 8
  store ptr %this, ptr %this.addr, align 8
  store ptr %batch, ptr %batch.addr, align 8
  %this1 = load ptr, ptr %this.addr, align 8
  %batch_ = getelementptr inbounds %"class.rocksdb::LocalSavePoint", ptr %this1, i32 0, i32 0
  %0 = load ptr, ptr %batch.addr, align 8
  store ptr %0, ptr %batch_, align 8
  %savepoint_ = getelementptr inbounds %"class.rocksdb::LocalSavePoint", ptr %this1, i32 0, i32 1
  %1 = load ptr, ptr %batch.addr, align 8
  %call = call noundef i64 @_ZNK7rocksdb10WriteBatch11GetDataSizeEv(ptr noundef nonnull align 8 dereferenceable(96) %1)
  %2 = load ptr, ptr %batch.addr, align 8
  %call2 = call noundef i32 @_ZNK7rocksdb10WriteBatch5CountEv(ptr noundef nonnull align 8 dereferenceable(96) %2)
  %3 = load ptr, ptr %batch.addr, align 8
  %content_flags_ = getelementptr inbounds %"class.rocksdb::WriteBatch", ptr %3, i32 0, i32 6
  store ptr %content_flags_, ptr %this.addr.i, align 8
  store i32 0, ptr %__m.addr.i, align 4
  %this1.i = load ptr, ptr %this.addr.i, align 8
  %4 = load i32, ptr %__m.addr.i, align 4
  %call.i = call noundef i32 @_ZStanSt12memory_orderSt23__memory_order_modifier(i32 noundef %4, i32 noundef 65535)
  store i32 %call.i, ptr %__b.i, align 4
  %5 = load i32, ptr %__m.addr.i, align 4
  switch i32 %5, label %monotonic.i [
    i32 1, label %acquire.i
    i32 2, label %acquire.i
    i32 5, label %seqcst.i
  ]

monotonic.i:                                      ; preds = %entry
  %6 = load atomic i32, ptr %this1.i monotonic, align 4
  store i32 %6, ptr %atomic-temp.i, align 4
  br label %_ZNKSt13__atomic_baseIjE4loadESt12memory_order.exit

acquire.i:                                        ; preds = %entry, %entry
  %7 = load atomic i32, ptr %this1.i acquire, align 4
  store i32 %7, ptr %atomic-temp.i, align 4
  br label %_ZNKSt13__atomic_baseIjE4loadESt12memory_order.exit

seqcst.i:                                         ; preds = %entry
  %8 = load atomic i32, ptr %this1.i seq_cst, align 4
  store i32 %8, ptr %atomic-temp.i, align 4
  br label %_ZNKSt13__atomic_baseIjE4loadESt12memory_order.exit

_ZNKSt13__atomic_baseIjE4loadESt12memory_order.exit: ; preds = %seqcst.i, %acquire.i, %monotonic.i
  %9 = load i32, ptr %atomic-temp.i, align 4
  call void @_ZN7rocksdb9SavePointC2Emjj(ptr noundef nonnull align 8 dereferenceable(16) %savepoint_, i64 noundef %call, i32 noundef %call2, i32 noundef %9)
  ret void
}

; Function Attrs: mustprogress uwtable
define void @_ZN7rocksdb10WriteBatch10PutLogDataERKNS_5SliceE(ptr noalias sret(%"class.rocksdb::Status") align 8 %agg.result, ptr noundef nonnull align 8 dereferenceable(96) %this, ptr noundef nonnull align 8 dereferenceable(16) %blob) unnamed_addr #0 align 2 {
entry:
  %result.ptr = alloca ptr, align 8
  %this.addr = alloca ptr, align 8
  %blob.addr = alloca ptr, align 8
  %save = alloca %"class.rocksdb::LocalSavePoint", align 8
  store ptr %agg.result, ptr %result.ptr, align 8
  store ptr %this, ptr %this.addr, align 8
  store ptr %blob, ptr %blob.addr, align 8
  %this1 = load ptr, ptr %this.addr, align 8
  call void @_ZN7rocksdb14LocalSavePointC2EPNS_10WriteBatchE(ptr noundef nonnull align 8 dereferenceable(24) %save, ptr noundef %this1)
  %rep_ = getelementptr inbounds %"class.rocksdb::WriteBatch", ptr %this1, i32 0, i32 10
  call void @_ZNSt7__cxx1112basic_stringIcSt11char_traitsIcESaIcEE9push_backEc(ptr noundef nonnull align 8 dereferenceable(32) %rep_, i8 noundef signext 3)
  %rep_2 = getelementptr inbounds %"class.rocksdb::WriteBatch", ptr %this1, i32 0, i32 10
  %0 = load ptr, ptr %blob.addr, align 8
  call void @_ZN7rocksdb22PutLengthPrefixedSliceEPNSt7__cxx1112basic_stringIcSt11char_traitsIcESaIcEEERKNS_5SliceE(ptr noundef %rep_2, ptr noundef nonnull align 8 dereferenceable(16) %0)
  call void @_ZN7rocksdb14LocalSavePoint6commitEv(ptr sret(%"class.rocksdb::Status") align 8 %agg.result, ptr noundef nonnull align 8 dereferenceable(24) %save)
  ret void
}