; Function Attrs: mustprogress uwtable
define void @_ZN7rocksdb10WriteBatch10PutLogDataERKNS_5SliceE(ptr noalias sret(%"class.rocksdb::Status") align 8 %agg.result, ptr noundef nonnull align 8 dereferenceable(96) %this, ptr nocapture noundef nonnull readonly align 8 dereferenceable(16) %blob) unnamed_addr #2 align 2 {
entry:
  %buf.i.i = alloca [5 x i8], align 1
  %save = alloca %"class.rocksdb::LocalSavePoint", align 8
  store ptr %this, ptr %save, align 8
  %rep_.i.i = getelementptr inbounds i8, ptr %this, i64 64
  %call.i5.i = tail call noundef i64 @_ZNKSt7__cxx1112basic_stringIcSt11char_traitsIcESaIcEE4sizeEv(ptr noundef nonnull align 8 dereferenceable(32) %rep_.i.i) #24
  %call.i.i.i = tail call noundef ptr @_ZNKSt7__cxx1112basic_stringIcSt11char_traitsIcESaIcEE4dataEv(ptr noundef nonnull align 8 dereferenceable(32) %rep_.i.i) #24
  %add.ptr.i.i.i = getelementptr inbounds i8, ptr %call.i.i.i, i64 8
  %result.0.copyload.i.i.i.i = load i32, ptr %add.ptr.i.i.i, align 1
  %content_flags_.i = getelementptr inbounds i8, ptr %this, i64 36
  %0 = load atomic i32, ptr %content_flags_.i monotonic, align 4
  %savepoint_.i = getelementptr inbounds i8, ptr %save, i64 8
  store i64 %call.i5.i, ptr %savepoint_.i, align 8
  %count.i.i = getelementptr inbounds i8, ptr %save, i64 16
  store i32 %result.0.copyload.i.i.i.i, ptr %count.i.i, align 8
  %content_flags.i.i = getelementptr inbounds i8, ptr %save, i64 20
  store i32 %0, ptr %content_flags.i.i, align 4
  tail call void @_ZNSt7__cxx1112basic_stringIcSt11char_traitsIcESaIcEE9push_backEc(ptr noundef nonnull align 8 dereferenceable(32) %rep_.i.i, i8 noundef signext 3)
  %size_.i.i = getelementptr inbounds i8, ptr %blob, i64 8
  %1 = load i64, ptr %size_.i.i, align 8
  %conv.i = trunc i64 %1 to i32
  call void @llvm.lifetime.start.p0(i64 5, ptr nonnull %buf.i.i)
  %call.i.i = call noundef ptr @_ZN7rocksdb14EncodeVarint32EPcj(ptr noundef nonnull %buf.i.i, i32 noundef %conv.i)
  %sub.ptr.lhs.cast.i.i = ptrtoint ptr %call.i.i to i64
  %sub.ptr.rhs.cast.i.i = ptrtoint ptr %buf.i.i to i64
  %sub.ptr.sub.i.i = sub i64 %sub.ptr.lhs.cast.i.i, %sub.ptr.rhs.cast.i.i
  %call3.i.i = call noundef nonnull align 8 dereferenceable(32) ptr @_ZNSt7__cxx1112basic_stringIcSt11char_traitsIcESaIcEE6appendEPKcm(ptr noundef nonnull align 8 dereferenceable(32) %rep_.i.i, ptr noundef nonnull %buf.i.i, i64 noundef %sub.ptr.sub.i.i)
  call void @llvm.lifetime.end.p0(i64 5, ptr nonnull %buf.i.i)
  %2 = load ptr, ptr %blob, align 8
  %3 = load i64, ptr %size_.i.i, align 8
  %call3.i = call noundef nonnull align 8 dereferenceable(32) ptr @_ZNSt7__cxx1112basic_stringIcSt11char_traitsIcESaIcEE6appendEPKcm(ptr noundef nonnull align 8 dereferenceable(32) %rep_.i.i, ptr noundef %2, i64 noundef %3)
  call void @_ZN7rocksdb14LocalSavePoint6commitEv(ptr sret(%"class.rocksdb::Status") align 8 %agg.result, ptr noundef nonnull align 8 dereferenceable(24) %save)
  ret void
}